target datalayout = "e-m:e-p270:32:32-p271:32:32-p272:64:64-i64:64-i128:128-f80:128-n8:16:32:64-S128"
target triple = "x86_64-pc-linux-gnu"

%struct.QEMUSnapshotInfo = type { [128 x i8], [256 x i8], i64, i32, i32, i64, i64 }
%struct.GraphLockableMainloop = type {}
%struct.InternalSnapshotState = type { ptr, %struct.QEMUSnapshotInfo, i8 }

@.str = private unnamed_addr constant [22 x i8] c"qemu_in_main_thread()\00", align 1
@.str.1 = private unnamed_addr constant [19 x i8] c"../qemu/blockdev.c\00", align 1
@__PRETTY_FUNCTION__.internal_snapshot_abort = private unnamed_addr constant [37 x i8] c"void internal_snapshot_abort(void *)\00", align 1
@.str.212 = private unnamed_addr constant [79 x i8] c"Failed to delete snapshot with id '%s' and name '%s' on device '%s' in abort: \00", align 1

; Function Attrs: inlinehint nounwind sspstrong uwtable
define internal void @graph_lockable_auto_unlock_mainloop(ptr noundef %0) #5 {
  %2 = alloca ptr, align 8
  store ptr %0, ptr %2, align 8
  call void @bdrv_graph_rdunlock_main_loop()
  ret void
}

; Function Attrs: inlinehint nounwind sspstrong uwtable
define internal void @glib_autoptr_clear_GraphLockableMainloop(ptr noundef %0) #5 {
  %2 = alloca ptr, align 8
  store ptr %0, ptr %2, align 8
  %3 = load ptr, ptr %2, align 8
  %4 = icmp ne ptr %3, null
  br i1 %4, label %5, label %7

5:                                                ; preds = %1
  %6 = load ptr, ptr %2, align 8
  call void @graph_lockable_auto_unlock_mainloop(ptr noundef %6)
  br label %7

7:                                                ; preds = %5, %1
  ret void
}

; Function Attrs: inlinehint nounwind sspstrong uwtable
define internal void @glib_autoptr_cleanup_GraphLockableMainloop(ptr noundef %0) #5 {
  %2 = alloca ptr, align 8
  store ptr %0, ptr %2, align 8
  %3 = load ptr, ptr %2, align 8
  %4 = load ptr, ptr %3, align 8
  call void @glib_autoptr_clear_GraphLockableMainloop(ptr noundef %4)
  ret void
}

; Function Attrs: inlinehint nounwind sspstrong uwtable
define internal ptr @graph_lockable_auto_lock_mainloop(ptr noundef %0) #5 {
  %2 = alloca ptr, align 8
  store ptr %0, ptr %2, align 8
  call void @bdrv_graph_rdlock_main_loop()
  %3 = load ptr, ptr %2, align 8
  ret ptr %3
}

; Function Attrs: nounwind sspstrong uwtable
define internal void @internal_snapshot_abort(ptr noundef %0) #0 {
  %2 = alloca ptr, align 8
  %3 = alloca ptr, align 8
  %4 = alloca ptr, align 8
  %5 = alloca ptr, align 8
  %6 = alloca ptr, align 8
  %7 = alloca ptr, align 8
  %8 = alloca %struct.GraphLockableMainloop, align 1
  %9 = alloca i32, align 4
  store ptr %0, ptr %2, align 8
  call void @llvm.lifetime.start.p0(i64 8, ptr %3) #16
  %10 = load ptr, ptr %2, align 8
  store ptr %10, ptr %3, align 8
  call void @llvm.lifetime.start.p0(i64 8, ptr %4) #16
  %11 = load ptr, ptr %3, align 8
  %12 = getelementptr inbounds nuw %struct.InternalSnapshotState, ptr %11, i32 0, i32 0
  %13 = load ptr, ptr %12, align 8
  store ptr %13, ptr %4, align 8
  call void @llvm.lifetime.start.p0(i64 8, ptr %5) #16
  %14 = load ptr, ptr %3, align 8
  %15 = getelementptr inbounds nuw %struct.InternalSnapshotState, ptr %14, i32 0, i32 1
  store ptr %15, ptr %5, align 8
  call void @llvm.lifetime.start.p0(i64 8, ptr %6) #16
  store ptr null, ptr %6, align 8
  br label %16

16:                                               ; preds = %1
  %17 = call zeroext i1 @qemu_in_main_thread()
  br i1 %17, label %18, label %19

18:                                               ; preds = %16
  br label %20

19:                                               ; preds = %16
  call void @__assert_fail(ptr noundef @.str, ptr noundef @.str.1, i32 noundef 1297, ptr noundef @__PRETTY_FUNCTION__.internal_snapshot_abort) #15
  unreachable

20:                                               ; preds = %18
  br label %21

21:                                               ; preds = %20
  br label %22

22:                                               ; preds = %21
  call void @llvm.lifetime.start.p0(i64 8, ptr %7) #16
  %23 = call ptr @graph_lockable_auto_lock_mainloop(ptr noundef %8)
  store ptr %23, ptr %7, align 8
  %24 = load ptr, ptr %3, align 8
  %25 = getelementptr inbounds nuw %struct.InternalSnapshotState, ptr %24, i32 0, i32 2
  %26 = load i8, ptr %25, align 8, !range !7, !noundef !8
  %27 = trunc i8 %26 to i1
  br i1 %27, label %29, label %28

28:                                               ; preds = %22
  store i32 1, ptr %9, align 4
  br label %50

29:                                               ; preds = %22
  %30 = load ptr, ptr %4, align 8
  %31 = load ptr, ptr %5, align 8
  %32 = getelementptr inbounds nuw %struct.QEMUSnapshotInfo, ptr %31, i32 0, i32 0
  %33 = getelementptr inbounds [128 x i8], ptr %32, i64 0, i64 0
  %34 = load ptr, ptr %5, align 8
  %35 = getelementptr inbounds nuw %struct.QEMUSnapshotInfo, ptr %34, i32 0, i32 1
  %36 = getelementptr inbounds [256 x i8], ptr %35, i64 0, i64 0
  %37 = call i32 @bdrv_snapshot_delete(ptr noundef %30, ptr noundef %33, ptr noundef %36, ptr noundef %6)
  %38 = icmp slt i32 %37, 0
  br i1 %38, label %39, label %49

39:                                               ; preds = %29
  %40 = load ptr, ptr %6, align 8
  %41 = load ptr, ptr %5, align 8
  %42 = getelementptr inbounds nuw %struct.QEMUSnapshotInfo, ptr %41, i32 0, i32 0
  %43 = getelementptr inbounds [128 x i8], ptr %42, i64 0, i64 0
  %44 = load ptr, ptr %5, align 8
  %45 = getelementptr inbounds nuw %struct.QEMUSnapshotInfo, ptr %44, i32 0, i32 1
  %46 = getelementptr inbounds [256 x i8], ptr %45, i64 0, i64 0
  %47 = load ptr, ptr %4, align 8
  %48 = call ptr @bdrv_get_device_name(ptr noundef %47)
  call void (ptr, ptr, ...) @error_reportf_err(ptr noundef %40, ptr noundef @.str.212, ptr noundef %43, ptr noundef %46, ptr noundef %48)
  br label %49

49:                                               ; preds = %39, %29
  store i32 0, ptr %9, align 4
  br label %50

50:                                               ; preds = %49, %28
  call void @glib_autoptr_cleanup_GraphLockableMainloop(ptr noundef %7)
  call void @llvm.lifetime.end.p0(i64 8, ptr %7) #16
  call void @llvm.lifetime.end.p0(i64 8, ptr %6) #16
  call void @llvm.lifetime.end.p0(i64 8, ptr %5) #16
  call void @llvm.lifetime.end.p0(i64 8, ptr %4) #16
  call void @llvm.lifetime.end.p0(i64 8, ptr %3) #16
  %51 = load i32, ptr %9, align 4
  switch i32 %51, label %53 [
    i32 0, label %52
    i32 1, label %52
  ]

52:                                               ; preds = %50, %50
  ret void

53:                                               ; preds = %50
  unreachable
}