; Function Attrs: nounwind sspstrong uwtable
define internal void @internal_snapshot_abort(ptr noundef %0) #0 {
  %2 = alloca ptr, align 8
  %3 = load ptr, ptr %0, align 8
  %4 = getelementptr inbounds nuw i8, ptr %0, i64 8
  call void @llvm.lifetime.start.p0(i64 8, ptr nonnull %2) #14
  store ptr null, ptr %2, align 8
  %5 = tail call zeroext i1 @qemu_in_main_thread() #14
  br i1 %5, label %7, label %6

6:                                                ; preds = %1
  tail call void @__assert_fail(ptr noundef nonnull @.str, ptr noundef nonnull @.str.1, i32 noundef 1297, ptr noundef nonnull @__PRETTY_FUNCTION__.internal_snapshot_abort) #15
  unreachable

7:                                                ; preds = %1
  tail call void @bdrv_graph_rdlock_main_loop() #14
  %8 = getelementptr inbounds nuw i8, ptr %0, i64 424
  %9 = load i8, ptr %8, align 8, !range !6, !noundef !7
  %10 = trunc nuw i8 %9 to i1
  br i1 %10, label %11, label %glib_autoptr_cleanup_GraphLockableMainloop.exit

11:                                               ; preds = %7
  %12 = getelementptr inbounds nuw i8, ptr %0, i64 136
  %13 = call i32 @bdrv_snapshot_delete(ptr noundef %3, ptr noundef nonnull %4, ptr noundef nonnull %12, ptr noundef nonnull %2) #14
  %14 = icmp slt i32 %13, 0
  br i1 %14, label %15, label %glib_autoptr_cleanup_GraphLockableMainloop.exit

15:                                               ; preds = %11
  %16 = load ptr, ptr %2, align 8
  %17 = call ptr @bdrv_get_device_name(ptr noundef %3) #14
  call void (ptr, ptr, ...) @error_reportf_err(ptr noundef %16, ptr noundef nonnull @.str.212, ptr noundef nonnull %4, ptr noundef nonnull %12, ptr noundef %17) #14
  br label %glib_autoptr_cleanup_GraphLockableMainloop.exit

glib_autoptr_cleanup_GraphLockableMainloop.exit:  ; preds = %11, %15, %7
  call void @bdrv_graph_rdunlock_main_loop() #14
  call void @llvm.lifetime.end.p0(i64 8, ptr nonnull %2) #14
  ret void
}